; Function Attrs: mustprogress nofree nounwind willreturn memory(readwrite, argmem: read, inaccessiblemem: read) uwtable
define internal noundef i32 @OnSetExceptionStringParamMaxLen(ptr nocapture readnone %0, ptr nocapture noundef readonly %1, ptr nocapture readnone %2, ptr nocapture readnone %3, ptr nocapture readnone %4, i32 %5) #26 {
  %7 = getelementptr inbounds i8, ptr %1, i64 24
  %8 = tail call i64 @atoll(ptr nocapture noundef nonnull %7) #33
  %or.cond = icmp ult i64 %8, 1000001
  br i1 %or.cond, label %9, label %10

9:                                                ; preds = %6
  store i64 %8, ptr getelementptr inbounds (%struct._zend_executor_globals, ptr @executor_globals, i64 0, i32 66), align 8
  br label %10

10:                                               ; preds = %6, %9
  %.0 = phi i32 [ 0, %9 ], [ -1, %6 ]
  ret i32 %.0
}